(lp0
(icourse_class
Course
p1
(dp2
S'_Course__num'
p3
V101
p4
sS'_Course__recitation'
p5
NsS'_Course__exams'
p6
NsS'_Course__dept'
p7
VE
p8
sS'_Course__lab'
p9
NsS'_Course__lecture'
p10
NsS'_Course__books'
p11
(dp12
sS'_Course__final'
p13
NsS'lecture'
p14
VNo lecture - you must attend 8 events on a list of approved events and sign in to pass for the semester
p15
sS'_Course__name'
p16
VEngineering Experiences
p17
sS'_Course__homework'
p18
NsS'homework'
p19
V4 online modules to listen to
p20
sba(icourse_class
Course
p21
(dp22
g3
Vnown
p23
sg5
Nsg6
Nsg7
VUNK
p24
sg9
Nsg10
Nsg11
(dp25
S'e245_6e.pdf'
p26
VElectrical Engineering Principles and Applications - Sixth Edition
p27
sS'StewartCalculusConceptsandContexts4th.pdf'
p28
VStewart Calculus Concepts and Contexts - 4th Edition
p29
ssg13
Nsg16
S''
p30
sg18
Nsba(icourse_class
Course
p31
(dp32
g3
V121
p33
sg5
Nsg6
NsS'final'
p34
VFinal project - about 10 weeks of class time. Design, build, and code a robot to autonomously navigating and complete simple tasks using the Arduino programming language. Large written report. Short in-class presentation
p35
sg7
g8
sg9
Nsg10
Nsg11
(dp36
sg13
Nsg14
V1 3-hour lecture per week
p37
sg16
VEngineering Design 1 - "D1"
p38
sg18
Nsg19
VShort readings the first few weeks, then the written report at the end
p39
sba(icourse_class
Course
p40
(dp41
g3
V183
p42
sg5
Nsg6
Nsg7
VH
p43
sg9
Nsg10
Nsg11
(dp44
sg13
Nsg14
VDifferent professors come and present the research they have done
p45
sg16
VResearch Seminar I
p46
sg18
Nsba(icourse_class
Course
p47
(dp48
g3
V184
p49
sg5
Nsg6
Nsg7
g43
sg9
Nsg10
NsS'exams'
p50
VOne question about what your plan for the summer is
p51
sg11
(dp52
sg13
Nsg14
VUsually they tour the labs, but there were so many students for Spring 2015 that the removed the lecture section
p53
sg16
VResearch Seminar II
p54
sg18
Nsba(icourse_class
Course
p55
(dp56
g3
V245
p57
sg5
Nsg6
Nsg7
g8
sg9
Nsg10
Nsg50
VSeveral exams throughout the year.
p58
sg11
(dp59
sg13
Nsg14
VKevin Ryan + his power point slides a few times a week.
p60
sg16
VCircuits and Systems
p61
sg18
Nsg19
VA few problems from the book due every two weeks or so. There is also sometimes "problem of the week" that is a harder problem that you have a week or two to do. Every homework has a cover page and they are on canvas along with all slides.
p62
sba(icourse_class
Course
p63
(dp64
g3
V115
p65
sg5
Nsg6
Nsg7
g8
sg9
Nsg10
Nsg50
VOne midterm taken online and group collaboration is allowed and encouraged.
p66
sg11
(dp67
sg13
Nsg14
V1 hour once a week, usually finished early, the professor teaches you concepts and you program along with them
p68
sg16
VIntroduction to Programming
p69
sg18
Nsg19
VMake a program to fit the criteria for the week
p70
sba(icourse_class
Course
p71
(dp72
g3
V122
p73
sg5
Nsg6
Nsg34
VProject and report
p74
sg7
g8
sg9
Nsg10
Nsg11
(dp75
sg13
Nsg14
V1 3-hour lecture per week
p76
sg16
VEngineering Design 2 - "D2"
p77
sg18
Nsg19
VLabView(programming language) assignments he first few weeks
p78
sba(icourse_class
Course
p79
(dp80
g3
V105
p81
sg5
Nsg6
Nsg34
VTime and format varies greatly by professor. Anything from several short questions to an essays
p82
sg7
VCAL
p83
sg9
Nsg10
Nsg50
V1 midterm with length varying greatly by professor
p84
sg11
(dp85
sg13
Nsg14
V3 hours a week, either as a 2-hour and a 1-hour session or as 3 1-hour sessions. Varies by professor, usually a discussion-based lecture
p86
sg16
VKnowledge, Nature, and Culture
p87
sg18
Nsg19
VVaries by professor but generally 3 essays, and 1-2 readings per week with short writing assignments for each
p88
sba(icourse_class
Course
p89
(dp90
g3
V121-
p91
sg5
Nsg6
Nsg34
V4-hours allotted time, generally takes 1.5-2.5 hours
p92
sg7
VMA
p93
sg9
Nsg10
Nsg50
V3 1-hour exams, with fraternity-led and school-led reviews before
p94
sg11
(dp95
S'ma121-124_6e.pdf'
p96
VHughes-Hallett Calculus 6th Edition
p97
ssg13
Nsg14
V2 1-hour lectures per week
p98
sg16
V- Calc 1 & Calc 2
p99
sg18
Nsg19
VWorksheet - 1 per week - generally two problems. WileyPlus - 1 assignment/week, generally 12-15 questions, and a review before each exam, about the same length. Canvas - 1 quiz before every lecture, 2 or 3 multiple choice questions. Gradarius(Only for Calc 1) - 1 assignment per week, typically 4 questions, where you show your work online
p100
sba(icourse_class
Course
p101
(dp102
g3
V101
p103
sg5
Nsg6
Nsg7
VQF
p104
sg9
Nsg10
Nsg50
V2-3 exams per semester
p105
sg11
(dp106
sg13
Nsg14
VOne 2-hour and one 1-hour lecture per week. Starts with a quiz on the WSJ, then powerpoints and videos
p107
sg16
g30
sg18
Nsg19
VRead Wall Street Journal sections and the professors blog articles before each lecture. 2-3 projects/semester. 1 group portfolio managed throughout the semester
p108
sba(icourse_class
Course
p109
(dp110
g3
V117
p111
sg5
Nsg6
Nsg34
VVideo of one of the labs
p112
sg7
VCH
p113
sg9
Nsg10
Nsg50
VQuizzes at the beginning of each lab
p114
sg11
(dp115
S'ch117_10.pdf'
p116
VChemistry Lab Manual - This book has all the lab forms and info in it. You need to print them out before every lab, they should also all be available on Canvas
p117
ssg13
Nsg14
V1 Lab per week, usually about one hour of the three hour time allotment
p118
sg16
VChemistry Lab
p119
sg18
Nsg19
VFinishing lab reports
p120
sba(icourse_class
Course
p121
(dp122
g3
V103
p123
sg5
Nsg6
Nsg7
VMGT
p124
sg9
Nsg10
Nsg11
(dp125
S'mgt103_2e.pdf'
p126
VRunning Lean 2nd Edition
p127
ssg13
Nsg16
VIntroduction to Entrepreneurial Thinking - "Intro to Entro"
p128
sg18
Nsba(icourse_class
Course
p129
(dp130
g3
V221
p131
sg5
Nsg6
Nsg34
VI havent had the final yet
p132
sg7
VMA
p133
sg9
Nsg10
Nsg50
VExam 1 - 4 problems for 25pts each - you pretty much just need to know 4 equations and then you will do fine
p134
sg11
(dp135
S'ma221_8e.pdf'
p136
VFundamental Differential Equations & Boundary Value Problems - Nagle 6th Edition
p137
ssg13
Nsg14
V2 1-hour lectures per week
p138
sg16
VDifferential Equations - "DifEq"
p139
sg18
Nsg19
V2 written homeworks/week - generally 6-10 problems
p140
sba(icourse_class
Course
p141
(dp142
g3
V135
p143
sg5
Nsg6
Nsg7
VCS
p144
sg9
Nsg10
Nsg11
(dp145
S'cs135_7e.pdf'
p146
VDiscrete Mathematics and Its Applications - McGraw Hill 7th Edition
p147
sS'cs135_Schemer_4e.pdf'
p148
VThe Little Schemer - 4th Edition
p149
ssg13
Nsg16
VDiscrete Structures
p150
sg18
Nsba(icourse_class
Course
p151
(dp152
g3
V281
p153
sg5
Nsg6
Nsg34
V4-hours allotted time, 25 percent of final grade
p154
sg7
VCH
p155
sg9
Nsg10
Nsg50
V3 1-hour exams, 15 percent of final grade each
p156
sg11
(dp157
sg13
Nsg14
VTwice a week
p158
sg16
VBiology
p159
sg18
Nsg19
VCanvas- Questions you need to know for recitation(1/week) are online on the calendar. You must know the answers to the questions for each recitation, and you must uplaod a picture of your answers to all questions to canvas before the exam on those chapters. Mintap/Aplia- Tutorial Quiz and Aplia assignment for each chapter must be completed by the due dates posted
p160
sba(icourse_class
Course
p161
(dp162
g3
V111
p163
sg5
Nsg6
Nsg34
VI havent had the final yet
p164
sg7
VPEP
p165
sg9
Nsg10
Nsg50
V15 point quizzes every two weeks, you get to drop the lowest grade
p166
sg11
(dp167
S'pep111_3e.pdf'
p168
VPhysics - Knight 3rd Edition
p169
ssg13
Nsg14
V2 1-hour lectures per week
p170
sg16
VMechanics
p171
sg18
Nsg19
VMasteringPhysics - 1 online assignment/week. Im not going to say there is a javascript code that will give you all the answers... but Im not saying there isnt
p172
sba(icourse_class
Course
p173
(dp174
g3
V188
p175
sg5
Nsg6
Nsg7
VCS
p176
sg9
Nsg10
Nsg11
(dp177
sg13
Nsg14
VStudents present on controversial/interesting technology
p178
sg16
VSeminar in Computer Science
p179
sg18
Nsg19
VPrepare your presentation for the class
p180
sba(icourse_class
Course
p181
(dp182
g3
V103
p183
sg5
Nsg6
Nsg34
VTime and format varies greatly by professor. Anything from several short questions to several essays
p184
sg7
VCAL
p185
sg9
Nsg10
Nsg50
V1 midterm with length varying greatly by professor
p186
sg11
(dp187
S'cal103_hacker_6e.pdf'
p188
VA Pocket Style Manual - Diana Hacker
p189
sS'cal103.pdf'
p190
VA World of Ideas
p191
ssg13
Nsg14
V3 hours a week, either as a 2-hour and a 1-hour session or as 3 1-hour sessions. Varies by professor, usually a discussion-based lecture
p192
sg16
VWriting and Communications
p193
sg18
Nsg19
VVaries greatly by professor but generally 3 essays, 1 being a research paper, and 1-2 readings per week with short writing assignments for each
p194
sba(icourse_class
Course
p195
(dp196
g3
V126
p197
sg5
Nsg6
Nsg7
g8
sg9
Nsg10
Nsg11
(dp198
S'e126_4e.pdf'
p199
VStatics and Mechanics of Materials - Hibbeler 4th Edition
p200
ssg13
Nsg16
VMechanics of Solids - "Mech Solids"
p201
sg18
Nsba(icourse_class
Course
p202
(dp203
g3
V222
p204
sg5
Nsg6
Nsg7
VMA
p205
sg9
Nsg10
Nsg11
(dp206
S'ma222_8e.pdf'
p207
VProbability and Statistics for Engineering and the Sciences - Devore 8th Edition
p208
ssg13
Nsg16
VProbability and Statistics for Engineers - "ProbStats"
p209
sg18
Nsba(icourse_class
Course
p210
(dp211
g3
V120
p212
sg5
Nsg6
Nsg34
VFinal project - 3D Model with several parts, detail drawings for each, short in-class presentation
p213
sg7
g8
sg9
Nsg10
Nsg50
V2 in-class quizzes
p214
sg11
(dp215
S'e120_4e.pdf'
p216
VGraphics Communications for Engineers
p217
ssg13
Nsg14
V1 2-hour lecture per week
p218
sg16
VGraphics
p219
sg18
Nsg19
V~1 model/week using SolidWorks to make engineering drawings
p220
sba(icourse_class
Course
p221
(dp222
g3
V115
p223
sg5
Nsg6
Nsg34
V4 hour allotted time, generally takes 1-2.5 hour
p224
sg7
VCH
p225
sg9
Nsg10
Nsg50
V3 1-hour exams
p226
sg11
(dp227
S'ch115_9e.pdf'
p228
VZumdahl Chemistry 9th Edition
p229
ssg13
Nsg14
V2 1-hour lectures per week. Most people stop going after 3 weeks or so, obviously people that go more generally do better
p230
sg16
VChemistry 1
p231
sg18
Nsg19
VMasteringPhysics - 1 online assignment/week
p232
sba(icourse_class
Course
p233
(dp234
g3
V188
p235
sg5
Nsg6
Nsg34
VYou need 5 points to pass the class for the semester
p236
sg7
VMA
p237
sg9
Nsg10
Nsg50
VSeveral quizzes to get additional points
p238
sg11
(dp239
sg13
Nsg14
VProfessor discusses concept in discrete mathematics and example problems
p240
sg16
VSeminar in Math Sciences
p241
sg18
Nsg19
VProblems based on concepts from class, for correctly presenting the solution to the class you get 1 point
p242
sba.
