ccopy_reg
_reconstructor
p0
(cxml.etree.ElementTree
Element
p1
c__builtin__
object
p2
Ntp3
Rp4
(dp5
S'text'
p6
S'\n\t'
p7
sS'attrib'
p8
(dp9
S'Courses'
p10
S'1968'
p11
sS'Semester'
p12
S'2015F'
p13
sS'Requirements'
p14
S'2250'
p15
sS'Meetings'
p16
S'2182'
p17
ssS'tag'
p18
g12
sS'_children'
p19
(lp20
g0
(g1
g2
Ntp21
Rp22
(dp23
g6
S'\n\t\t'
p24
sg8
(dp25
S'Status'
p26
S'O'
p27
sS'StartDate'
p28
S'2015-08-31Z'
p29
sS'Term'
p30
S'2015F'
p31
sS'EndDate'
p32
S'2015-12-23Z'
p33
sS'Title'
p34
S'Seminar in Business'
p35
sS'MaxCredit'
p36
S'1'
p37
sS'Instructor1'
p38
S'Murphy A'
p39
sS'Section'
p40
S'BT 181A'
p41
sS'MaxEnrollment'
p42
S'45'
p43
sS'CallNumber'
p44
S'10063'
p45
sS'MinCredit'
p46
S'1'
p47
sS'CurrentEnrollment'
p48
S'42'
p49
ssg18
S'Course'
p50
sS'tail'
p51
S'\n\t'
p52
sg19
(lp53
g0
(g1
g2
Ntp54
Rp55
(dp56
g8
(dp57
S'Building'
p58
S''
p59
sS'Room'
p60
g59
sS'Site'
p61
S'Castle Point'
p62
sS'StartTime'
p63
S'5:00:00Z'
p64
sS'Activity'
p65
S'SEM'
p66
sS'EndTime'
p67
S'5:50:00Z'
p68
sS'Day'
p69
S'W'
p70
ssg18
S'Meeting'
p71
sg51
S'\n\t'
p72
sg19
(lp73
sbasbag0
(g1
g2
Ntp74
Rp75
(dp76
g6
S'\n\t\t'
p77
sg8
(dp78
g26
S'O'
p79
sg28
S'2015-08-31Z'
p80
sg30
S'2015F'
p81
sg32
S'2015-12-23Z'
p82
sg34
S'Project Management'
p83
sg36
S'3'
p84
sg38
S'Lombardi D'
p85
sg40
S'BT 353A'
p86
sg42
S'35'
p87
sg44
S'10085'
p88
sg46
S'3'
p89
sg48
S'23'
p90
ssg18
g50
sg51
S'\n\t'
p91
sg19
(lp92
g0
(g1
g2
Ntp93
Rp94
(dp95
g8
(dp96
g58
g59
sg60
g59
sg61
S'Castle Point'
p97
sg63
S'9:00:00Z'
p98
sg65
S'LEC'
p99
sg67
S'9:50:00Z'
p100
sg69
S'M'
p101
ssg18
g71
sg51
S'\n\t\t'
p102
sg19
(lp103
sbag0
(g1
g2
Ntp104
Rp105
(dp106
g8
(dp107
g58
g59
sg60
g59
sg61
S'Castle Point'
p108
sg63
S'7:00:00Z'
p109
sg65
S'LEC'
p110
sg67
S'8:40:00Z'
p111
sg69
S'W'
p112
ssg18
g71
sg51
S'\n\t'
p113
sg19
(lp114
sbasbag0
(g1
g2
Ntp115
Rp116
(dp117
g6
S'\n\t\t'
p118
sg8
(dp119
g26
S'O'
p120
sg28
S'2015-08-31Z'
p121
sg30
S'2015F'
p122
sg32
S'2015-12-23Z'
p123
sg34
S'Project Management'
p124
sg36
S'3'
p125
sg38
S'Lombardi D'
p126
sg40
S'BT 353B'
p127
sg42
S'35'
p128
sg44
S'12010'
p129
sg46
S'3'
p130
sg48
S'31'
p131
ssg18
g50
sg51
S'\n\t'
p132
sg19
(lp133
g0
(g1
g2
Ntp134
Rp135
(dp136
g8
(dp137
g58
g59
sg60
g59
sg61
S'Castle Point'
p138
sg63
S'11:00:00Z'
p139
sg65
S'LEC'
p140
sg67
S'12:40:00Z'
p141
sg69
S'M'
p142
ssg18
g71
sg51
S'\n\t\t'
p143
sg19
(lp144
sbag0
(g1
g2
Ntp145
Rp146
(dp147
g8
(dp148
g58
g59
sg60
g59
sg61
S'Castle Point'
p149
sg63
S'5:00:00Z'
p150
sg65
S'LEC'
p151
sg67
S'5:50:00Z'
p152
sg69
S'W'
p153
ssg18
g71
sg51
S'\n\t'
p154
sg19
(lp155
sbasbag0
(g1
g2
Ntp156
Rp157
(dp158
g6
S'\n\t\t'
p159
sg8
(dp160
g26
S'C'
p161
sg28
S'2015-08-31Z'
p162
sg30
S'2015F'
p163
sg32
S'2015-12-23Z'
p164
sg34
S'Project Management'
p165
sg36
S'3'
p166
sg38
S'STAFF'
p167
sg40
S'BT 353C'
p168
sg42
S'40'
p169
sg44
S'12011'
p170
sg46
S'3'
p171
sg48
S'40'
p172
ssg18
g50
sg51
S'\n\t'
p173
sg19
(lp174
g0
(g1
g2
Ntp175
Rp176
(dp177
g8
(dp178
g58
g59
sg60
g59
sg61
S'Castle Point'
p179
sg63
S'11:00:00Z'
p180
sg65
S'LEC'
p181
sg67
S'12:40:00Z'
p182
sg69
S'T'
p183
ssg18
g71
sg51
S'\n\t\t'
p184
sg19
(lp185
sbag0
(g1
g2
Ntp186
Rp187
(dp188
g8
(dp189
g58
g59
sg60
g59
sg61
S'Castle Point'
p190
sg63
S'7:00:00Z'
p191
sg65
S'LEC'
p192
sg67
S'7:50:00Z'
p193
sg69
S'R'
p194
ssg18
g71
sg51
S'\n\t'
p195
sg19
(lp196
sbasbag0
(g1
g2
Ntp197
Rp198
(dp199
g6
S'\n\t\t'
p200
sg8
(dp201
g26
S'O'
p202
sg28
S'2015-08-31Z'
p203
sg30
S'2015F'
p204
sg32
S'2015-12-23Z'
p205
sg34
S'Project Management'
p206
sg36
S'3'
p207
sg38
S'STAFF'
p208
sg40
S'BT 353D'
p209
sg42
S'40'
p210
sg44
S'12012'
p211
sg46
S'3'
p212
sg48
S'27'
p213
ssg18
g50
sg51
S'\n\t'
p214
sg19
(lp215
g0
(g1
g2
Ntp216
Rp217
(dp218
g8
(dp219
g58
g59
sg60
g59
sg61
S'Castle Point'
p220
sg63
S'11:00:00Z'
p221
sg65
S'LEC'
p222
sg67
S'12:40:00Z'
p223
sg69
S'T'
p224
ssg18
g71
sg51
S'\n\t\t'
p225
sg19
(lp226
sbag0
(g1
g2
Ntp227
Rp228
(dp229
g8
(dp230
g58
g59
sg60
g59
sg61
S'Castle Point'
p231
sg63
S'7:00:00Z'
p232
sg65
S'LEC'
p233
sg67
S'7:50:00Z'
p234
sg69
S'R'
p235
ssg18
g71
sg51
S'\n\t'
p236
sg19
(lp237
sbasbag0
(g1
g2
Ntp238
Rp239
(dp240
g6
S'\n\t\t'
p241
sg8
(dp242
g26
S'C'
p243
sg28
S'2015-08-31Z'
p244
sg30
S'2015F'
p245
sg32
S'2015-12-23Z'
p246
sg34
S'Project Management'
p247
sg36
S'3'
p248
sg38
S'Lombardi D'
p249
sg40
S'BT 353E'
p250
sg42
S'39'
p251
sg44
S'12009'
p252
sg46
S'3'
p253
sg48
S'39'
p254
ssg18
g50
sg51
S'\n\t'
p255
sg19
(lp256
g0
(g1
g2
Ntp257
Rp258
(dp259
g8
(dp260
g58
g59
sg60
g59
sg61
S'Castle Point'
p261
sg63
S'14:15:00Z'
p262
sg65
S'LEC'
p263
sg67
S'16:45:00Z'
p264
sg69
S'M'
p265
ssg18
g71
sg51
S'\n\t'
p266
sg19
(lp267
sbasbag0
(g1
g2
Ntp268
Rp269
(dp270
g6
S'\n\t\t'
p271
sg8
(dp272
g26
S'O'
p273
sg28
S'2015-08-31Z'
p274
sg30
S'2015F'
p275
sg32
S'2015-12-23Z'
p276
sg34
S'Discrete Structures'
p277
sg36
S'4'
p278
sg38
S'Naumann D'
p279
sg40
S'CS 135A'
p280
sg42
S'40'
p281
sg44
S'10479'
p282
sg46
S'4'
p283
sg48
S'27'
p284
ssg18
g50
sg51
S'\n\t'
p285
sg19
(lp286
g0
(g1
g2
Ntp287
Rp288
(dp289
g8
(dp290
g58
g59
sg60
g59
sg61
S'Castle Point'
p291
sg63
S'6:00:00Z'
p292
sg65
S'LEC'
p293
sg67
S'6:50:00Z'
p294
sg69
S'MWF'
p295
ssg18
g71
sg51
S'\n\t\t'
p296
sg19
(lp297
sbasbag0
(g1
g2
Ntp298
Rp299
(dp300
g6
S'\n\t\t'
p301
sg8
(dp302
g26
S'O'
p303
sg28
S'2015-08-31Z'
p304
sg30
S'2015F'
p305
sg32
S'2015-12-23Z'
p306
sg34
S'Discrete Structures'
p307
sg36
S'0'
p308
sg38
S'STAFF'
p309
sg40
S'CS 135LA'
p310
sg42
S'20'
p311
sg44
S'10480'
p312
sg46
S'0'
p313
sg48
S'8'
p314
ssg18
g50
sg51
S'\n\t'
p315
sg19
(lp316
g0
(g1
g2
Ntp317
Rp318
(dp319
g8
(dp320
g58
g59
sg60
g59
sg61
S'Castle Point'
p321
sg63
S'7:00:00Z'
p322
sg65
S'LAB'
p323
sg67
S'8:40:00Z'
p324
sg69
S'F'
p325
ssg18
g71
sg51
S'\n\t\t'
p326
sg19
(lp327
sbasbag0
(g1
g2
Ntp328
Rp329
(dp330
g6
S'\n\t\t'
p331
sg8
(dp332
g26
S'O'
p333
sg28
S'2015-08-31Z'
p334
sg30
S'2015F'
p335
sg32
S'2015-12-23Z'
p336
sg34
S'Discrete Structures'
p337
sg36
S'0'
p338
sg38
S'STAFF'
p339
sg40
S'CS 135LB'
p340
sg42
S'20'
p341
sg44
S'11840'
p342
sg46
S'0'
p343
sg48
S'19'
p344
ssg18
g50
sg51
S'\n\t'
p345
sg19
(lp346
g0
(g1
g2
Ntp347
Rp348
(dp349
g8
(dp350
g58
g59
sg60
g59
sg61
S'Castle Point'
p351
sg63
S'9:00:00Z'
p352
sg65
S'LAB'
p353
sg67
S'10:40:00Z'
p354
sg69
S'F'
p355
ssg18
g71
sg51
S'\n\t\t'
p356
sg19
(lp357
sbasbag0
(g1
g2
Ntp358
Rp359
(dp360
g6
S'\n\t\t'
p361
sg8
(dp362
g26
S'O'
p363
sg28
S'2015-08-31Z'
p364
sg30
S'2015F'
p365
sg32
S'2015-12-23Z'
p366
sg34
S'Intro to Web Prgming & Web Dev'
p367
sg36
S'3'
p368
sg38
S'Gabarro S'
p369
sg40
S'CS 146A'
p370
sg42
S'70'
p371
sg44
S'10481'
p372
sg46
S'3'
p373
sg48
S'2'
p374
ssg18
g50
sg51
S'\n\t'
p375
sg19
(lp376
g0
(g1
g2
Ntp377
Rp378
(dp379
g8
(dp380
g58
g59
sg60
g59
sg61
S'Castle Point'
p381
sg63
S'5:00:00Z'
p382
sg65
S'LEC'
p383
sg67
S'5:50:00Z'
p384
sg69
S'TWF'
p385
ssg18
g71
sg51
S'\n\t'
p386
sg19
(lp387
sbasbag0
(g1
g2
Ntp388
Rp389
(dp390
g6
S'\n\t\t'
p391
sg8
(dp392
g26
S'O'
p393
sg28
S'2015-08-31Z'
p394
sg30
S'2015F'
p395
sg32
S'2015-12-23Z'
p396
sg34
S'Intro to Web Prgming & Web Dev'
p397
sg36
S'3'
p398
sg38
S'Gabarro S'
p399
sg40
S'CS 146B'
p400
sg42
S'70'
p401
sg44
S'10482'
p402
sg46
S'3'
p403
sg48
S'12'
p404
ssg18
g50
sg51
S'\n\t'
p405
sg19
(lp406
g0
(g1
g2
Ntp407
Rp408
(dp409
g8
(dp410
g58
g59
sg60
g59
sg61
S'Castle Point'
p411
sg63
S'10:00:00Z'
p412
sg65
S'LEC'
p413
sg67
S'10:50:00Z'
p414
sg69
S'MTR'
p415
ssg18
g71
sg51
S'\n\t'
p416
sg19
(lp417
sbasbag0
(g1
g2
Ntp418
Rp419
(dp420
g6
S'\n\t\t'
p421
sg8
(dp422
g26
S'O'
p423
sg28
S'2015-08-31Z'
p424
sg30
S'2015F'
p425
sg32
S'2015-12-23Z'
p426
sg34
S'Data Structures'
p427
sg36
S'4'
p428
sg38
S'Naumann D'
p429
sg40
S'CS 284A'
p430
sg42
S'50'
p431
sg44
S'10486'
p432
sg46
S'4'
p433
sg48
S'44'
p434
ssg18
g50
sg51
S'\n\t'
p435
sg19
(lp436
g0
(g1
g2
Ntp437
Rp438
(dp439
g8
(dp440
g58
g59
sg60
g59
sg61
S'Castle Point'
p441
sg63
S'8:00:00Z'
p442
sg65
S'LEC'
p443
sg67
S'8:50:00Z'
p444
sg69
S'MWF'
p445
ssg18
g71
sg51
S'\n\t\t'
p446
sg19
(lp447
sbasbag0
(g1
g2
Ntp448
Rp449
(dp450
g6
S'\n\t\t'
p451
sg8
(dp452
g26
S'O'
p453
sg28
S'2015-08-31Z'
p454
sg30
S'2015F'
p455
sg32
S'2015-12-23Z'
p456
sg34
S'Data Structures'
p457
sg36
S'0'
p458
sg38
S'STAFF'
p459
sg40
S'CS 284RA'
p460
sg42
S'25'
p461
sg44
S'10487'
p462
sg46
S'0'
p463
sg48
S'23'
p464
ssg18
g50
sg51
S'\n\t'
p465
sg19
(lp466
g0
(g1
g2
Ntp467
Rp468
(dp469
g8
(dp470
g58
g59
sg60
g59
sg61
S'Castle Point'
p471
sg63
S'11:00:00Z'
p472
sg65
S'RCT'
p473
sg67
S'11:50:00Z'
p474
sg69
S'M'
p475
ssg18
g71
sg51
S'\n\t\t'
p476
sg19
(lp477
sbasbag0
(g1
g2
Ntp478
Rp479
(dp480
g6
S'\n\t\t'
p481
sg8
(dp482
g26
S'O'
p483
sg28
S'2015-08-31Z'
p484
sg30
S'2015F'
p485
sg32
S'2015-12-23Z'
p486
sg34
S'Data Structures'
p487
sg36
S'0'
p488
sg38
S'STAFF'
p489
sg40
S'CS 284RB'
p490
sg42
S'25'
p491
sg44
S'12166'
p492
sg46
S'0'
p493
sg48
S'21'
p494
ssg18
g50
sg51
S'\n\t'
p495
sg19
(lp496
g0
(g1
g2
Ntp497
Rp498
(dp499
g8
(dp500
g58
g59
sg60
g59
sg61
S'Castle Point'
p501
sg63
S'11:00:00Z'
p502
sg65
S'RCT'
p503
sg67
S'11:50:00Z'
p504
sg69
S'M'
p505
ssg18
g71
sg51
S'\n\t\t'
p506
sg19
(lp507
sbasbag0
(g1
g2
Ntp508
Rp509
(dp510
g6
S'\n\t\t'
p511
sg8
(dp512
g26
S'C'
p513
sg28
S'2015-08-31Z'
p514
sg30
S'2015F'
p515
sg32
S'2015-12-23Z'
p516
sg34
S'History of the World'
p517
sg36
S'3'
p518
sg38
S'McClellan J'
p519
sg40
S'HHS 468EV'
p520
sg42
S'14'
p521
sg44
S'11995'
p522
sg46
S'3'
p523
sg48
S'14'
p524
ssg18
g50
sg51
S'\n\t'
p525
sg19
(lp526
g0
(g1
g2
Ntp527
Rp528
(dp529
g8
(dp530
g58
g59
sg60
g59
sg61
S'Castle Point'
p531
sg63
S'14:15:00Z'
p532
sg65
S'LEC'
p533
sg67
S'16:45:00Z'
p534
sg69
S'M'
p535
ssg18
g71
sg51
S'\n\t'
p536
sg19
(lp537
sbasbasb.