ccopy_reg
_reconstructor
p0
(cxml.etree.ElementTree
Element
p1
c__builtin__
object
p2
Ntp3
Rp4
(dp5
S'text'
p6
S'\n\t'
p7
sS'attrib'
p8
(dp9
S'Courses'
p10
S'1969'
p11
sS'Semester'
p12
S'2015F'
p13
sS'Requirements'
p14
S'2246'
p15
sS'Meetings'
p16
S'2183'
p17
ssS'tag'
p18
g12
sS'_children'
p19
(lp20
g0
(g1
g2
Ntp21
Rp22
(dp23
g6
S'\n\t\t'
p24
sg8
(dp25
S'Status'
p26
S'C'
p27
sS'StartDate'
p28
S'2015-08-31Z'
p29
sS'Term'
p30
S'2015F'
p31
sS'EndDate'
p32
S'2015-12-23Z'
p33
sS'Title'
p34
S'History of the World'
p35
sS'MaxCredit'
p36
S'3'
p37
sS'Instructor1'
p38
S'McClellan J'
p39
sS'Section'
p40
S'HHS 468EV'
p41
sS'MaxEnrollment'
p42
S'14'
p43
sS'CallNumber'
p44
S'11995'
p45
sS'MinCredit'
p46
S'3'
p47
sS'CurrentEnrollment'
p48
S'14'
p49
ssg18
S'Course'
p50
sS'tail'
p51
S'\n\t'
p52
sg19
(lp53
g0
(g1
g2
Ntp54
Rp55
(dp56
g8
(dp57
S'Building'
p58
S''
p59
sS'Room'
p60
g59
sS'Site'
p61
S'Castle Point'
p62
sS'StartTime'
p63
S'14:15:00Z'
p64
sS'Activity'
p65
S'LEC'
p66
sS'EndTime'
p67
S'16:45:00Z'
p68
sS'Day'
p69
S'M'
p70
ssg18
S'Meeting'
p71
sg51
S'\n\t'
p72
sg19
(lp73
sbasbasb.